; Function Attrs: nounwind uwtable
define ptr @l_Lean_Language_SnapshotTree_foldSnaps_traverseChildren___rarg___lambda__3(ptr noundef %0, ptr noundef %1, ptr noundef %2, ptr noundef %3, ptr readnone captures(none) %4) local_unnamed_addr #1 {
  %6 = getelementptr inbounds nuw i8, ptr %0, i64 32
  %7 = load ptr, ptr %6, align 8, !tbaa !9
  %8 = ptrtoint ptr %7 to i64
  %9 = and i64 %8, 1
  %.not = icmp eq i64 %9, 0
  br i1 %.not, label %10, label %lean_inc.exit20

10:                                               ; preds = %5
  %.val.i = load i32, ptr %7, align 4, !tbaa !4
  %11 = icmp sgt i32 %.val.i, 0
  br i1 %11, label %12, label %14, !prof !11

12:                                               ; preds = %10
  %13 = add nuw i32 %.val.i, 1
  store i32 %13, ptr %7, align 4, !tbaa !4
  br label %lean_inc.exit20

14:                                               ; preds = %10
  %.not.i21 = icmp eq i32 %.val.i, 0
  br i1 %.not.i21, label %lean_inc.exit20, label %15

15:                                               ; preds = %14
  tail call void @lean_inc_ref_cold(ptr noundef nonnull %7) #6
  br label %lean_inc.exit20

lean_inc.exit20:                                  ; preds = %15, %14, %12, %5
  %16 = ptrtoint ptr %0 to i64
  %17 = and i64 %16, 1
  %.not26 = icmp eq i64 %17, 0
  br i1 %.not26, label %18, label %lean_dec.exit

18:                                               ; preds = %lean_inc.exit20
  %19 = load i32, ptr %0, align 4, !tbaa !4
  %20 = icmp sgt i32 %19, 1
  br i1 %20, label %21, label %23, !prof !11

21:                                               ; preds = %18
  %22 = add nsw i32 %19, -1
  store i32 %22, ptr %0, align 4, !tbaa !4
  br label %lean_dec.exit

23:                                               ; preds = %18
  %.not.i = icmp eq i32 %19, 0
  br i1 %.not.i, label %lean_dec.exit, label %24

24:                                               ; preds = %23
  tail call void @lean_dec_ref_cold(ptr noundef nonnull %0) #6
  br label %lean_dec.exit

lean_dec.exit:                                    ; preds = %24, %23, %21, %lean_inc.exit20
  %25 = ptrtoint ptr %1 to i64
  %26 = and i64 %25, 1
  %.not27 = icmp eq i64 %26, 0
  br i1 %.not27, label %27, label %lean_inc.exit

27:                                               ; preds = %lean_dec.exit
  %.val.i22 = load i32, ptr %1, align 4, !tbaa !4
  %28 = icmp sgt i32 %.val.i22, 0
  br i1 %28, label %29, label %31, !prof !11

29:                                               ; preds = %27
  %30 = add nuw i32 %.val.i22, 1
  store i32 %30, ptr %1, align 4, !tbaa !4
  br label %lean_inc.exit

31:                                               ; preds = %27
  %.not.i23 = icmp eq i32 %.val.i22, 0
  br i1 %.not.i23, label %lean_inc.exit, label %32

32:                                               ; preds = %31
  tail call void @lean_inc_ref_cold(ptr noundef nonnull %1) #6
  br label %lean_inc.exit

lean_inc.exit:                                    ; preds = %32, %31, %29, %lean_dec.exit
  tail call void @lean_inc_heartbeat() #6
  %33 = tail call noalias ptr @mi_malloc_small(i64 noundef 40) #6
  %34 = icmp eq ptr %33, null
  br i1 %34, label %35, label %lean_alloc_closure.exit

35:                                               ; preds = %lean_inc.exit
  tail call void @lean_internal_panic_out_of_memory() #7
  unreachable

lean_alloc_closure.exit:                          ; preds = %lean_inc.exit
  %36 = getelementptr inbounds nuw i8, ptr %33, i64 4
  store i32 1, ptr %33, align 4, !tbaa !4
  store i32 -184549336, ptr %36, align 4
  %37 = getelementptr inbounds nuw i8, ptr %33, i64 8
  store ptr @l_Lean_Language_SnapshotTree_foldSnaps_traverseTree___rarg, ptr %37, align 8, !tbaa !9
  %38 = getelementptr inbounds nuw i8, ptr %33, i64 16
  store i16 3, ptr %38, align 8, !tbaa !15
  %39 = getelementptr inbounds nuw i8, ptr %33, i64 18
  store i16 2, ptr %39, align 2, !tbaa !15
  %40 = getelementptr inbounds nuw i8, ptr %33, i64 24
  store ptr %1, ptr %40, align 8, !tbaa !9
  %41 = getelementptr inbounds nuw i8, ptr %33, i64 32
  store ptr %2, ptr %41, align 8, !tbaa !9
  %42 = load ptr, ptr @l_Task_Priority_default, align 8, !tbaa !9
  %43 = ptrtoint ptr %42 to i64
  %44 = lshr i64 %43, 1
  %45 = trunc i64 %44 to i32
  %46 = tail call ptr @lean_task_bind_core(ptr noundef %7, ptr noundef nonnull %33, i32 noundef %45, i1 noundef zeroext true, i1 noundef zeroext false) #6
  tail call void @lean_inc_heartbeat() #6
  %47 = tail call noalias ptr @mi_malloc_small(i64 noundef 40) #6
  %48 = icmp eq ptr %47, null
  br i1 %48, label %49, label %lean_alloc_closure.exit25

49:                                               ; preds = %lean_alloc_closure.exit
  tail call void @lean_internal_panic_out_of_memory() #7
  unreachable

lean_alloc_closure.exit25:                        ; preds = %lean_alloc_closure.exit
  %50 = getelementptr inbounds nuw i8, ptr %47, i64 4
  store i32 1, ptr %47, align 4, !tbaa !4
  store i32 -184549336, ptr %50, align 4
  %51 = getelementptr inbounds nuw i8, ptr %47, i64 8
  store ptr @l_Lean_Language_SnapshotTree_foldSnaps_traverseChildren___rarg___lambda__2, ptr %51, align 8, !tbaa !9
  %52 = getelementptr inbounds nuw i8, ptr %47, i64 16
  store i16 3, ptr %52, align 8, !tbaa !15
  %53 = getelementptr inbounds nuw i8, ptr %47, i64 18
  store i16 2, ptr %53, align 2, !tbaa !15
  %54 = getelementptr inbounds nuw i8, ptr %47, i64 24
  store ptr %1, ptr %54, align 8, !tbaa !9
  %55 = getelementptr inbounds nuw i8, ptr %47, i64 32
  store ptr %3, ptr %55, align 8, !tbaa !9
  %56 = tail call ptr @lean_task_bind_core(ptr noundef %46, ptr noundef nonnull %47, i32 noundef %45, i1 noundef zeroext true, i1 noundef zeroext false) #6
  ret ptr %56
}